target datalayout = "e-m:e-p270:32:32-p271:32:32-p272:64:64-i64:64-i128:128-f80:128-n8:16:32:64-S128"
target triple = "x86_64-pc-linux-gnu"

%struct.List = type { i32, i32, i32, ptr, [0 x %union.ListCell] }
%union.ListCell = type { ptr }
%struct.ForEachState = type { ptr, i32 }
%struct.ErrorContextCallback = type { ptr, ptr, ptr }
%struct.ReindexErrorInfo = type { ptr, ptr, i8 }

@error_context_stack = external global ptr, align 8
@.str.86 = private unnamed_addr constant [14 x i8] c"REINDEX TABLE\00", align 1
@.str.87 = private unnamed_addr constant [14 x i8] c"REINDEX INDEX\00", align 1
@PortalContext = external global ptr, align 8
@.str.88 = private unnamed_addr constant [8 x i8] c"Reindex\00", align 1
@CurrentMemoryContext = external global ptr, align 8

; Function Attrs: inlinehint nounwind uwtable
define internal ptr @MemoryContextSwitchTo(ptr noundef %0) #3 {
  %2 = alloca ptr, align 8
  %3 = alloca ptr, align 8
  store ptr %0, ptr %2, align 8
  call void @llvm.lifetime.start.p0(i64 8, ptr %3) #10
  %4 = load ptr, ptr @CurrentMemoryContext, align 8
  store ptr %4, ptr %3, align 8
  %5 = load ptr, ptr %2, align 8
  store ptr %5, ptr @CurrentMemoryContext, align 8
  %6 = load ptr, ptr %3, align 8
  call void @llvm.lifetime.end.p0(i64 8, ptr %3) #10
  ret ptr %6
}

; Function Attrs: nounwind uwtable
define internal void @ReindexPartitions(ptr noundef %0, i32 noundef %1, ptr noundef %2, i1 noundef zeroext %3) #0 {
  %5 = alloca ptr, align 8
  %6 = alloca i32, align 4
  %7 = alloca ptr, align 8
  %8 = alloca i8, align 1
  %9 = alloca ptr, align 8
  %10 = alloca i8, align 1
  %11 = alloca ptr, align 8
  %12 = alloca ptr, align 8
  %13 = alloca ptr, align 8
  %14 = alloca ptr, align 8
  %15 = alloca ptr, align 8
  %16 = alloca %struct.ErrorContextCallback, align 8
  %17 = alloca %struct.ReindexErrorInfo, align 8
  %18 = alloca i32, align 4
  %19 = alloca %struct.ForEachState, align 8
  %20 = alloca i32, align 4
  %21 = alloca i32, align 4
  %22 = alloca i8, align 1
  %23 = alloca ptr, align 8
  store ptr %0, ptr %5, align 8
  store i32 %1, ptr %6, align 4
  store ptr %2, ptr %7, align 8
  %24 = zext i1 %3 to i8
  store i8 %24, ptr %8, align 1
  call void @llvm.lifetime.start.p0(i64 8, ptr %9) #10
  store ptr null, ptr %9, align 8
  call void @llvm.lifetime.start.p0(i64 1, ptr %10) #10
  %25 = load i32, ptr %6, align 4
  %26 = call signext i8 @get_rel_relkind(i32 noundef %25)
  store i8 %26, ptr %10, align 1
  call void @llvm.lifetime.start.p0(i64 8, ptr %11) #10
  %27 = load i32, ptr %6, align 4
  %28 = call ptr @get_rel_name(i32 noundef %27)
  store ptr %28, ptr %11, align 8
  call void @llvm.lifetime.start.p0(i64 8, ptr %12) #10
  %29 = load i32, ptr %6, align 4
  %30 = call i32 @get_rel_namespace(i32 noundef %29)
  %31 = call ptr @get_namespace_name(i32 noundef %30)
  store ptr %31, ptr %12, align 8
  call void @llvm.lifetime.start.p0(i64 8, ptr %13) #10
  call void @llvm.lifetime.start.p0(i64 8, ptr %14) #10
  call void @llvm.lifetime.start.p0(i64 8, ptr %15) #10
  call void @llvm.lifetime.start.p0(i64 24, ptr %16) #10
  call void @llvm.lifetime.start.p0(i64 24, ptr %17) #10
  %32 = load ptr, ptr %11, align 8
  %33 = call ptr @pstrdup(ptr noundef %32)
  %34 = getelementptr inbounds nuw %struct.ReindexErrorInfo, ptr %17, i32 0, i32 0
  store ptr %33, ptr %34, align 8
  %35 = load ptr, ptr %12, align 8
  %36 = call ptr @pstrdup(ptr noundef %35)
  %37 = getelementptr inbounds nuw %struct.ReindexErrorInfo, ptr %17, i32 0, i32 1
  store ptr %36, ptr %37, align 8
  %38 = load i8, ptr %10, align 1
  %39 = getelementptr inbounds nuw %struct.ReindexErrorInfo, ptr %17, i32 0, i32 2
  store i8 %38, ptr %39, align 8
  %40 = getelementptr inbounds nuw %struct.ErrorContextCallback, ptr %16, i32 0, i32 1
  store ptr @reindex_error_callback, ptr %40, align 8
  %41 = getelementptr inbounds nuw %struct.ErrorContextCallback, ptr %16, i32 0, i32 2
  store ptr %17, ptr %41, align 8
  %42 = load ptr, ptr @error_context_stack, align 8
  %43 = getelementptr inbounds nuw %struct.ErrorContextCallback, ptr %16, i32 0, i32 0
  store ptr %42, ptr %43, align 8
  store ptr %16, ptr @error_context_stack, align 8
  %44 = load i8, ptr %8, align 1, !range !4, !noundef !5
  %45 = trunc i8 %44 to i1
  %46 = load i8, ptr %10, align 1
  %47 = sext i8 %46 to i32
  %48 = icmp eq i32 %47, 112
  %49 = select i1 %48, ptr @.str.86, ptr @.str.87
  call void @PreventInTransactionBlock(i1 noundef zeroext %45, ptr noundef %49)
  %50 = getelementptr inbounds nuw %struct.ErrorContextCallback, ptr %16, i32 0, i32 0
  %51 = load ptr, ptr %50, align 8
  store ptr %51, ptr @error_context_stack, align 8
  br label %52

52:                                               ; preds = %4
  br label %53

53:                                               ; preds = %52
  br label %54

54:                                               ; preds = %53
  store i32 1, ptr %18, align 4
  %55 = load ptr, ptr @PortalContext, align 8
  %56 = call ptr @AllocSetContextCreateInternal(ptr noundef %55, ptr noundef @.str.88, i64 noundef 0, i64 noundef 8192, i64 noundef 8388608)
  store ptr %56, ptr %13, align 8
  %57 = load i32, ptr %6, align 4
  %58 = call ptr @find_all_inheritors(i32 noundef %57, i32 noundef 5, ptr noundef null)
  store ptr %58, ptr %14, align 8
  call void @llvm.lifetime.start.p0(i64 16, ptr %19) #10
  %59 = getelementptr inbounds nuw %struct.ForEachState, ptr %19, i32 0, i32 0
  %60 = load ptr, ptr %14, align 8
  store ptr %60, ptr %59, align 8
  %61 = getelementptr inbounds nuw %struct.ForEachState, ptr %19, i32 0, i32 1
  store i32 0, ptr %61, align 8
  %62 = getelementptr i8, ptr %19, i64 12
  call void @llvm.memset.p0.i64(ptr align 4 %62, i8 0, i64 4, i1 false)
  br label %63

63:                                               ; preds = %125, %54
  %64 = getelementptr inbounds nuw %struct.ForEachState, ptr %19, i32 0, i32 0
  %65 = load ptr, ptr %64, align 8
  %66 = icmp ne ptr %65, null
  br i1 %66, label %67, label %84

67:                                               ; preds = %63
  %68 = getelementptr inbounds nuw %struct.ForEachState, ptr %19, i32 0, i32 1
  %69 = load i32, ptr %68, align 8
  %70 = getelementptr inbounds nuw %struct.ForEachState, ptr %19, i32 0, i32 0
  %71 = load ptr, ptr %70, align 8
  %72 = getelementptr inbounds nuw %struct.List, ptr %71, i32 0, i32 1
  %73 = load i32, ptr %72, align 4
  %74 = icmp slt i32 %69, %73
  br i1 %74, label %75, label %84

75:                                               ; preds = %67
  %76 = getelementptr inbounds nuw %struct.ForEachState, ptr %19, i32 0, i32 0
  %77 = load ptr, ptr %76, align 8
  %78 = getelementptr inbounds nuw %struct.List, ptr %77, i32 0, i32 3
  %79 = load ptr, ptr %78, align 8
  %80 = getelementptr inbounds nuw %struct.ForEachState, ptr %19, i32 0, i32 1
  %81 = load i32, ptr %80, align 8
  %82 = sext i32 %81 to i64
  %83 = getelementptr inbounds %union.ListCell, ptr %79, i64 %82
  store ptr %83, ptr %15, align 8
  br label %85

84:                                               ; preds = %67, %63
  store ptr null, ptr %15, align 8
  br label %85

85:                                               ; preds = %84, %75
  %86 = phi i32 [ 1, %75 ], [ 0, %84 ]
  %87 = icmp ne i32 %86, 0
  br i1 %87, label %89, label %88

88:                                               ; preds = %85
  store i32 4, ptr %20, align 4
  call void @llvm.lifetime.end.p0(i64 16, ptr %19) #10
  br label %129

89:                                               ; preds = %85
  call void @llvm.lifetime.start.p0(i64 4, ptr %21) #10
  %90 = load ptr, ptr %15, align 8
  %91 = load i32, ptr %90, align 8
  store i32 %91, ptr %21, align 4
  call void @llvm.lifetime.start.p0(i64 1, ptr %22) #10
  %92 = load i32, ptr %21, align 4
  %93 = call signext i8 @get_rel_relkind(i32 noundef %92)
  store i8 %93, ptr %22, align 1
  call void @llvm.lifetime.start.p0(i64 8, ptr %23) #10
  %94 = load i8, ptr %22, align 1
  %95 = sext i8 %94 to i32
  %96 = icmp eq i32 %95, 114
  br i1 %96, label %114, label %97

97:                                               ; preds = %89
  %98 = load i8, ptr %22, align 1
  %99 = sext i8 %98 to i32
  %100 = icmp eq i32 %99, 105
  br i1 %100, label %114, label %101

101:                                              ; preds = %97
  %102 = load i8, ptr %22, align 1
  %103 = sext i8 %102 to i32
  %104 = icmp eq i32 %103, 83
  br i1 %104, label %114, label %105

105:                                              ; preds = %101
  %106 = load i8, ptr %22, align 1
  %107 = sext i8 %106 to i32
  %108 = icmp eq i32 %107, 116
  br i1 %108, label %114, label %109

109:                                              ; preds = %105
  %110 = load i8, ptr %22, align 1
  %111 = sext i8 %110 to i32
  %112 = icmp eq i32 %111, 109
  br i1 %112, label %114, label %113

113:                                              ; preds = %109
  store i32 6, ptr %20, align 4
  br label %122

114:                                              ; preds = %109, %105, %101, %97, %89
  %115 = load ptr, ptr %13, align 8
  %116 = call ptr @MemoryContextSwitchTo(ptr noundef %115)
  store ptr %116, ptr %23, align 8
  %117 = load ptr, ptr %9, align 8
  %118 = load i32, ptr %21, align 4
  %119 = call ptr @lappend_oid(ptr noundef %117, i32 noundef %118)
  store ptr %119, ptr %9, align 8
  %120 = load ptr, ptr %23, align 8
  %121 = call ptr @MemoryContextSwitchTo(ptr noundef %120)
  store i32 0, ptr %20, align 4
  br label %122

122:                                              ; preds = %114, %113
  call void @llvm.lifetime.end.p0(i64 8, ptr %23) #10
  call void @llvm.lifetime.end.p0(i64 1, ptr %22) #10
  call void @llvm.lifetime.end.p0(i64 4, ptr %21) #10
  %123 = load i32, ptr %20, align 4
  switch i32 %123, label %134 [
    i32 0, label %124
    i32 6, label %125
  ]

124:                                              ; preds = %122
  br label %125

125:                                              ; preds = %124, %122
  %126 = getelementptr inbounds nuw %struct.ForEachState, ptr %19, i32 0, i32 1
  %127 = load i32, ptr %126, align 8
  %128 = add i32 %127, 1
  store i32 %128, ptr %126, align 8
  br label %63, !llvm.loop !30

129:                                              ; preds = %88
  %130 = load ptr, ptr %5, align 8
  %131 = load ptr, ptr %9, align 8
  %132 = load ptr, ptr %7, align 8
  call void @ReindexMultipleInternal(ptr noundef %130, ptr noundef %131, ptr noundef %132)
  %133 = load ptr, ptr %13, align 8
  call void @MemoryContextDelete(ptr noundef %133)
  call void @llvm.lifetime.end.p0(i64 24, ptr %17) #10
  call void @llvm.lifetime.end.p0(i64 24, ptr %16) #10
  call void @llvm.lifetime.end.p0(i64 8, ptr %15) #10
  call void @llvm.lifetime.end.p0(i64 8, ptr %14) #10
  call void @llvm.lifetime.end.p0(i64 8, ptr %13) #10
  call void @llvm.lifetime.end.p0(i64 8, ptr %12) #10
  call void @llvm.lifetime.end.p0(i64 8, ptr %11) #10
  call void @llvm.lifetime.end.p0(i64 1, ptr %10) #10
  call void @llvm.lifetime.end.p0(i64 8, ptr %9) #10
  ret void

134:                                              ; preds = %122
  unreachable
}