; Function Attrs: nounwind uwtable
define internal fastcc void @ReindexPartitions(ptr noundef %0, i32 noundef %1, ptr noundef nonnull readonly captures(none) %2, i1 noundef zeroext %3) unnamed_addr #0 {
  %5 = alloca %struct.ErrorContextCallback, align 8
  %6 = alloca %struct.ReindexErrorInfo, align 8
  %7 = tail call signext i8 @get_rel_relkind(i32 noundef %1) #11
  %8 = tail call ptr @get_rel_name(i32 noundef %1) #11
  %9 = tail call i32 @get_rel_namespace(i32 noundef %1) #11
  %10 = tail call ptr @get_namespace_name(i32 noundef %9) #11
  call void @llvm.lifetime.start.p0(i64 24, ptr nonnull %5) #11
  call void @llvm.lifetime.start.p0(i64 24, ptr nonnull %6) #11
  %11 = tail call ptr @pstrdup(ptr noundef %8) #11
  store ptr %11, ptr %6, align 8
  %12 = tail call ptr @pstrdup(ptr noundef %10) #11
  %13 = getelementptr inbounds nuw i8, ptr %6, i64 8
  store ptr %12, ptr %13, align 8
  %14 = getelementptr inbounds nuw i8, ptr %6, i64 16
  store i8 %7, ptr %14, align 8
  %15 = getelementptr inbounds nuw i8, ptr %5, i64 8
  store ptr @reindex_error_callback, ptr %15, align 8
  %16 = getelementptr inbounds nuw i8, ptr %5, i64 16
  store ptr %6, ptr %16, align 8
  %17 = load ptr, ptr @error_context_stack, align 8
  store ptr %17, ptr %5, align 8
  store ptr %5, ptr @error_context_stack, align 8
  %18 = icmp eq i8 %7, 112
  %19 = select i1 %18, ptr @.str.86, ptr @.str.87
  call void @PreventInTransactionBlock(i1 noundef zeroext %3, ptr noundef nonnull %19) #11
  %20 = load ptr, ptr %5, align 8
  store ptr %20, ptr @error_context_stack, align 8
  %21 = load ptr, ptr @PortalContext, align 8
  %22 = call ptr @AllocSetContextCreateInternal(ptr noundef %21, ptr noundef nonnull @.str.88, i64 noundef 0, i64 noundef 8192, i64 noundef 8388608) #11
  %23 = call ptr @find_all_inheritors(i32 noundef %1, i32 noundef 5, ptr noundef null) #11
  %24 = getelementptr inbounds nuw i8, ptr %23, i64 4
  %.not = icmp eq ptr %23, null
  br i1 %.not, label %._crit_edge, label %.lr.ph

.lr.ph:                                           ; preds = %4
  %25 = getelementptr inbounds nuw i8, ptr %23, i64 16
  %26 = load i32, ptr %24, align 4
  %27 = icmp sgt i32 %26, 0
  br i1 %27, label %.lr.ph51, label %._crit_edge

._crit_edge:                                      ; preds = %35, %.lr.ph, %4
  %.0.lcssa = phi ptr [ null, %4 ], [ null, %.lr.ph ], [ %.1, %35 ]
  call fastcc void @ReindexMultipleInternal(ptr noundef %0, ptr noundef %.0.lcssa, ptr noundef %2)
  call void @MemoryContextDelete(ptr noundef %22) #11
  call void @llvm.lifetime.end.p0(i64 24, ptr nonnull %6) #11
  call void @llvm.lifetime.end.p0(i64 24, ptr nonnull %5) #11
  ret void

.lr.ph51:                                         ; preds = %.lr.ph, %35
  %indvars.iv = phi i64 [ %indvars.iv.next, %35 ], [ 0, %.lr.ph ]
  %.04549 = phi ptr [ %.1, %35 ], [ null, %.lr.ph ]
  %28 = load ptr, ptr %25, align 8
  %29 = getelementptr inbounds nuw %union.ListCell, ptr %28, i64 %indvars.iv
  %30 = load i32, ptr %29, align 8
  %31 = call signext i8 @get_rel_relkind(i32 noundef %30) #11
  switch i8 %31, label %35 [
    i8 116, label %32
    i8 114, label %32
    i8 109, label %32
    i8 105, label %32
    i8 83, label %32
  ]

32:                                               ; preds = %.lr.ph51, %.lr.ph51, %.lr.ph51, %.lr.ph51, %.lr.ph51
  %33 = load ptr, ptr @CurrentMemoryContext, align 8
  store ptr %22, ptr @CurrentMemoryContext, align 8
  %34 = call ptr @lappend_oid(ptr noundef %.04549, i32 noundef %30) #11
  store ptr %33, ptr @CurrentMemoryContext, align 8
  br label %35

35:                                               ; preds = %.lr.ph51, %32
  %.1 = phi ptr [ %34, %32 ], [ %.04549, %.lr.ph51 ]
  %indvars.iv.next = add nuw nsw i64 %indvars.iv, 1
  %36 = load i32, ptr %24, align 4
  %37 = sext i32 %36 to i64
  %38 = icmp slt i64 %indvars.iv.next, %37
  br i1 %38, label %.lr.ph51, label %._crit_edge
}